; Function Attrs: mustprogress uwtable
define void @_ZN17grpc_event_engine12experimental22WorkStealingThreadPool13PostforkChildEv(ptr nocapture noundef nonnull readonly align 8 dereferenceable(24) %this) unnamed_addr #3 align 2 {
entry:
  %pool_ = getelementptr inbounds i8, ptr %this, i64 8
  %0 = load ptr, ptr %pool_, align 8
  %forking_.i.i = getelementptr inbounds i8, ptr %0, i64 225
  %1 = atomicrmw xchg ptr %forking_.i.i, i8 0 seq_cst, align 1
  %2 = and i8 %1, 1
  %tobool3.i.i.i.not.i = icmp eq i8 %2, 0
  br i1 %tobool3.i.i.i.not.i, label %if.then.i.i, label %_ZN17grpc_event_engine12experimental22WorkStealingThreadPool26WorkStealingThreadPoolImpl10SetForkingEb.exit.i

if.then.i.i:                                      ; preds = %entry
  tail call void @gpr_assertion_failed(ptr noundef nonnull @.str, i32 noundef 246, ptr noundef nonnull @.str.7) #25
  unreachable

_ZN17grpc_event_engine12experimental22WorkStealingThreadPool26WorkStealingThreadPoolImpl10SetForkingEb.exit.i: ; preds = %entry
  %reserve_threads_.i.i = getelementptr inbounds i8, ptr %0, i64 16
  %3 = load i64, ptr %reserve_threads_.i.i, align 8
  %cmp2.not.i.i = icmp eq i64 %3, 0
  br i1 %cmp2.not.i.i, label %_ZN17grpc_event_engine12experimental22WorkStealingThreadPool26WorkStealingThreadPoolImpl8PostforkEv.exit, label %for.body.i.i

for.body.i.i:                                     ; preds = %_ZN17grpc_event_engine12experimental22WorkStealingThreadPool26WorkStealingThreadPoolImpl10SetForkingEb.exit.i, %for.body.i.i
  %i.03.i.i = phi i64 [ %inc.i.i, %for.body.i.i ], [ 0, %_ZN17grpc_event_engine12experimental22WorkStealingThreadPool26WorkStealingThreadPoolImpl10SetForkingEb.exit.i ]
  tail call void @_ZN17grpc_event_engine12experimental22WorkStealingThreadPool26WorkStealingThreadPoolImpl11StartThreadEv(ptr noundef nonnull align 8 dereferenceable(632) %0)
  %inc.i.i = add nuw i64 %i.03.i.i, 1
  %4 = load i64, ptr %reserve_threads_.i.i, align 8
  %cmp.i.i = icmp ult i64 %inc.i.i, %4
  br i1 %cmp.i.i, label %for.body.i.i, label %_ZN17grpc_event_engine12experimental22WorkStealingThreadPool26WorkStealingThreadPoolImpl8PostforkEv.exit, !llvm.loop !7

_ZN17grpc_event_engine12experimental22WorkStealingThreadPool26WorkStealingThreadPoolImpl8PostforkEv.exit: ; preds = %for.body.i.i, %_ZN17grpc_event_engine12experimental22WorkStealingThreadPool26WorkStealingThreadPoolImpl10SetForkingEb.exit.i
  %lifeguard_.i.i = getelementptr inbounds i8, ptr %0, i64 264
  tail call void @_ZN17grpc_event_engine12experimental22WorkStealingThreadPool26WorkStealingThreadPoolImpl9Lifeguard5StartEv(ptr noundef nonnull align 8 dereferenceable(361) %lifeguard_.i.i)
  ret void
}